target datalayout = "e-m:e-p270:32:32-p271:32:32-p272:64:64-i64:64-i128:128-f80:128-n8:16:32:64-S128"
target triple = "x86_64-pc-linux-gnu"

%struct.hwloc_utils_parsing_flag = type { i64, ptr }

@stderr = external global ptr, align 8
@.str.89 = private unnamed_addr constant [9 x i8] c"restrict\00", align 1
@.str.90 = private unnamed_addr constant [5 x i8] c"NONE\00", align 1
@.str.91 = private unnamed_addr constant [4 x i8] c",|+\00", align 1
@.str.92 = private unnamed_addr constant [5 x i8] c" ,|+\00", align 1
@.str.93 = private unnamed_addr constant [35 x i8] c"Duplicate match for %s flag `%s'.\0A\00", align 1
@.str.94 = private unnamed_addr constant [31 x i8] c"Failed to parse %s flag `%s'.\0A\00", align 1

; Function Attrs: inlinehint nounwind uwtable
define internal i64 @hwloc_utils_parse_flags(ptr noundef %0, ptr noundef %1, i32 noundef %2, ptr noundef %3) #2 {
  %5 = alloca i64, align 8
  %6 = alloca ptr, align 8
  %7 = alloca ptr, align 8
  %8 = alloca i32, align 4
  %9 = alloca ptr, align 8
  %10 = alloca ptr, align 8
  %11 = alloca ptr, align 8
  %12 = alloca i32, align 4
  %13 = alloca i32, align 4
  %14 = alloca i64, align 8
  %15 = alloca i64, align 8
  %16 = alloca i32, align 4
  %17 = alloca i32, align 4
  %18 = alloca i32, align 4
  %19 = alloca i32, align 4
  %20 = alloca i64, align 8
  %21 = alloca ptr, align 8
  %22 = alloca i32, align 4
  store ptr %0, ptr %6, align 8, !tbaa !4
  store ptr %1, ptr %7, align 8, !tbaa !60
  store i32 %2, ptr %8, align 4, !tbaa !11
  store ptr %3, ptr %9, align 8, !tbaa !4
  call void @llvm.lifetime.start.p0(i64 8, ptr %10) #11
  call void @llvm.lifetime.start.p0(i64 8, ptr %11) #11
  call void @llvm.lifetime.start.p0(i64 4, ptr %12) #11
  call void @llvm.lifetime.start.p0(i64 4, ptr %13) #11
  call void @llvm.lifetime.start.p0(i64 8, ptr %14) #11
  call void @llvm.lifetime.start.p0(i64 8, ptr %15) #11
  store i64 0, ptr %15, align 8, !tbaa !15
  %23 = load ptr, ptr %6, align 8, !tbaa !4
  %24 = call i64 @strtoul(ptr noundef %23, ptr noundef %11, i32 noundef 0) #11
  %25 = trunc i64 %24 to i32
  store i32 %25, ptr %12, align 4, !tbaa !11
  %26 = load ptr, ptr %11, align 8, !tbaa !4
  %27 = load ptr, ptr %6, align 8, !tbaa !4
  %28 = icmp ne ptr %26, %27
  br i1 %28, label %29, label %37

29:                                               ; preds = %4
  %30 = load ptr, ptr %11, align 8, !tbaa !4
  %31 = load i8, ptr %30, align 1, !tbaa !17
  %32 = sext i8 %31 to i32
  %33 = icmp eq i32 %32, 0
  br i1 %33, label %34, label %37

34:                                               ; preds = %29
  %35 = load i32, ptr %12, align 4, !tbaa !11
  %36 = sext i32 %35 to i64
  store i64 %36, ptr %5, align 8
  store i32 1, ptr %16, align 4
  br label %195

37:                                               ; preds = %29, %4
  store i64 0, ptr %14, align 8, !tbaa !15
  br label %38

38:                                               ; preds = %61, %37
  %39 = load ptr, ptr %6, align 8, !tbaa !4
  %40 = load i64, ptr %14, align 8, !tbaa !15
  %41 = getelementptr inbounds nuw i8, ptr %39, i64 %40
  %42 = load i8, ptr %41, align 1, !tbaa !17
  %43 = icmp ne i8 %42, 0
  br i1 %43, label %44, label %64

44:                                               ; preds = %38
  call void @llvm.lifetime.start.p0(i64 4, ptr %17) #11
  %45 = call ptr @__ctype_toupper_loc() #15
  %46 = load ptr, ptr %45, align 8, !tbaa !32
  %47 = load ptr, ptr %6, align 8, !tbaa !4
  %48 = load i64, ptr %14, align 8, !tbaa !15
  %49 = getelementptr inbounds nuw i8, ptr %47, i64 %48
  %50 = load i8, ptr %49, align 1, !tbaa !17
  %51 = sext i8 %50 to i32
  %52 = sext i32 %51 to i64
  %53 = getelementptr inbounds i32, ptr %46, i64 %52
  %54 = load i32, ptr %53, align 4, !tbaa !11
  store i32 %54, ptr %17, align 4, !tbaa !11
  %55 = load i32, ptr %17, align 4, !tbaa !11
  store i32 %55, ptr %18, align 4, !tbaa !11
  call void @llvm.lifetime.end.p0(i64 4, ptr %17) #11
  %56 = load i32, ptr %18, align 4, !tbaa !11
  %57 = trunc i32 %56 to i8
  %58 = load ptr, ptr %6, align 8, !tbaa !4
  %59 = load i64, ptr %14, align 8, !tbaa !15
  %60 = getelementptr inbounds nuw i8, ptr %58, i64 %59
  store i8 %57, ptr %60, align 1, !tbaa !17
  br label %61

61:                                               ; preds = %44
  %62 = load i64, ptr %14, align 8, !tbaa !15
  %63 = add i64 %62, 1
  store i64 %63, ptr %14, align 8, !tbaa !15
  br label %38, !llvm.loop !62

64:                                               ; preds = %38
  %65 = load ptr, ptr %6, align 8, !tbaa !4
  %66 = call i32 @strcmp(ptr noundef %65, ptr noundef @.str.90) #12
  %67 = icmp eq i32 %66, 0
  br i1 %67, label %68, label %69

68:                                               ; preds = %64
  store i64 0, ptr %5, align 8
  store i32 1, ptr %16, align 4
  br label %195

69:                                               ; preds = %64
  %70 = load ptr, ptr %6, align 8, !tbaa !4
  store ptr %70, ptr %10, align 8, !tbaa !4
  br label %71

71:                                               ; preds = %192, %69
  %72 = load ptr, ptr %10, align 8, !tbaa !4
  %73 = icmp ne ptr %72, null
  br i1 %73, label %74, label %193

74:                                               ; preds = %71
  call void @llvm.lifetime.start.p0(i64 4, ptr %19) #11
  store i32 0, ptr %19, align 4, !tbaa !11
  call void @llvm.lifetime.start.p0(i64 8, ptr %20) #11
  %75 = load i64, ptr %15, align 8, !tbaa !15
  store i64 %75, ptr %20, align 8, !tbaa !15
  call void @llvm.lifetime.start.p0(i64 8, ptr %21) #11
  call void @llvm.lifetime.start.p0(i64 4, ptr %22) #11
  store i32 0, ptr %22, align 4, !tbaa !11
  %76 = load ptr, ptr %10, align 8, !tbaa !4
  %77 = call i64 @strspn(ptr noundef %76, ptr noundef @.str.91) #12
  %78 = load ptr, ptr %10, align 8, !tbaa !4
  %79 = getelementptr inbounds nuw i8, ptr %78, i64 %77
  store ptr %79, ptr %10, align 8, !tbaa !4
  %80 = load ptr, ptr %10, align 8, !tbaa !4
  %81 = call i64 @strcspn(ptr noundef %80, ptr noundef @.str.92) #12
  store i64 %81, ptr %14, align 8, !tbaa !15
  %82 = load i64, ptr %14, align 8, !tbaa !15
  %83 = icmp ne i64 %82, 0
  br i1 %83, label %85, label %84

84:                                               ; preds = %74
  store i32 6, ptr %16, align 4
  br label %190

85:                                               ; preds = %74
  %86 = load ptr, ptr %10, align 8, !tbaa !4
  %87 = load i64, ptr %14, align 8, !tbaa !15
  %88 = getelementptr inbounds nuw i8, ptr %86, i64 %87
  %89 = load i8, ptr %88, align 1, !tbaa !17
  %90 = icmp ne i8 %89, 0
  br i1 %90, label %91, label %99

91:                                               ; preds = %85
  %92 = load ptr, ptr %10, align 8, !tbaa !4
  %93 = load i64, ptr %14, align 8, !tbaa !15
  %94 = getelementptr inbounds nuw i8, ptr %92, i64 %93
  store i8 0, ptr %94, align 1, !tbaa !17
  %95 = load ptr, ptr %10, align 8, !tbaa !4
  %96 = load i64, ptr %14, align 8, !tbaa !15
  %97 = getelementptr inbounds nuw i8, ptr %95, i64 %96
  %98 = getelementptr inbounds i8, ptr %97, i64 1
  store ptr %98, ptr %11, align 8, !tbaa !4
  br label %100

99:                                               ; preds = %85
  store ptr null, ptr %11, align 8, !tbaa !4
  br label %100

100:                                              ; preds = %99, %91
  %101 = load ptr, ptr %10, align 8, !tbaa !4
  %102 = call ptr @strchr(ptr noundef %101, i32 noundef 36) #12
  store ptr %102, ptr %21, align 8, !tbaa !4
  %103 = load ptr, ptr %21, align 8, !tbaa !4
  %104 = icmp ne ptr %103, null
  br i1 %104, label %105, label %107

105:                                              ; preds = %100
  store i32 1, ptr %22, align 4, !tbaa !11
  %106 = load ptr, ptr %21, align 8, !tbaa !4
  store i8 0, ptr %106, align 1, !tbaa !17
  br label %107

107:                                              ; preds = %105, %100
  store i32 0, ptr %13, align 4, !tbaa !11
  br label %108

108:                                              ; preds = %173, %107
  %109 = load i32, ptr %13, align 4, !tbaa !11
  %110 = load i32, ptr %8, align 4, !tbaa !11
  %111 = icmp slt i32 %109, %110
  br i1 %111, label %112, label %176

112:                                              ; preds = %108
  %113 = load i32, ptr %22, align 4, !tbaa !11
  %114 = icmp eq i32 %113, 1
  br i1 %114, label %115, label %139

115:                                              ; preds = %112
  %116 = load ptr, ptr %10, align 8, !tbaa !4
  %117 = load ptr, ptr %7, align 8, !tbaa !60
  %118 = load i32, ptr %13, align 4, !tbaa !11
  %119 = sext i32 %118 to i64
  %120 = getelementptr inbounds %struct.hwloc_utils_parsing_flag, ptr %117, i64 %119
  %121 = getelementptr inbounds nuw %struct.hwloc_utils_parsing_flag, ptr %120, i32 0, i32 1
  %122 = load ptr, ptr %121, align 8, !tbaa !63
  %123 = load ptr, ptr %7, align 8, !tbaa !60
  %124 = load i32, ptr %13, align 4, !tbaa !11
  %125 = sext i32 %124 to i64
  %126 = getelementptr inbounds %struct.hwloc_utils_parsing_flag, ptr %123, i64 %125
  %127 = getelementptr inbounds nuw %struct.hwloc_utils_parsing_flag, ptr %126, i32 0, i32 1
  %128 = load ptr, ptr %127, align 8, !tbaa !63
  %129 = call i64 @strlen(ptr noundef %128) #12
  %130 = getelementptr inbounds nuw i8, ptr %122, i64 %129
  %131 = load ptr, ptr %10, align 8, !tbaa !4
  %132 = call i64 @strlen(ptr noundef %131) #12
  %133 = sub i64 0, %132
  %134 = getelementptr inbounds i8, ptr %130, i64 %133
  %135 = call i32 @strcmp(ptr noundef %116, ptr noundef %134) #12
  %136 = icmp ne i32 %135, 0
  br i1 %136, label %137, label %138

137:                                              ; preds = %115
  br label %173

138:                                              ; preds = %115
  br label %151

139:                                              ; preds = %112
  %140 = load ptr, ptr %7, align 8, !tbaa !60
  %141 = load i32, ptr %13, align 4, !tbaa !11
  %142 = sext i32 %141 to i64
  %143 = getelementptr inbounds %struct.hwloc_utils_parsing_flag, ptr %140, i64 %142
  %144 = getelementptr inbounds nuw %struct.hwloc_utils_parsing_flag, ptr %143, i32 0, i32 1
  %145 = load ptr, ptr %144, align 8, !tbaa !63
  %146 = load ptr, ptr %10, align 8, !tbaa !4
  %147 = call ptr @strstr(ptr noundef %145, ptr noundef %146) #12
  %148 = icmp ne ptr %147, null
  br i1 %148, label %150, label %149

149:                                              ; preds = %139
  br label %173

150:                                              ; preds = %139
  br label %151

151:                                              ; preds = %150, %138
  %152 = load i32, ptr %19, align 4, !tbaa !11
  %153 = icmp ne i32 %152, 0
  br i1 %153, label %154, label %162

154:                                              ; preds = %151
  %155 = load ptr, ptr @stderr, align 8, !tbaa !9
  %156 = load ptr, ptr %9, align 8, !tbaa !4
  %157 = load ptr, ptr %10, align 8, !tbaa !4
  %158 = call i32 (ptr, ptr, ...) @fprintf(ptr noundef %155, ptr noundef @.str.93, ptr noundef %156, ptr noundef %157) #11
  %159 = load ptr, ptr %9, align 8, !tbaa !4
  %160 = load ptr, ptr %7, align 8, !tbaa !60
  %161 = load i32, ptr %8, align 4, !tbaa !11
  call void @hwloc_utils_parsing_flag_error(ptr noundef %159, ptr noundef %160, i32 noundef %161)
  store i64 -1, ptr %5, align 8
  store i32 1, ptr %16, align 4
  br label %190

162:                                              ; preds = %151
  %163 = load ptr, ptr %7, align 8, !tbaa !60
  %164 = load i32, ptr %13, align 4, !tbaa !11
  %165 = sext i32 %164 to i64
  %166 = getelementptr inbounds %struct.hwloc_utils_parsing_flag, ptr %163, i64 %165
  %167 = getelementptr inbounds nuw %struct.hwloc_utils_parsing_flag, ptr %166, i32 0, i32 0
  %168 = load i64, ptr %167, align 8, !tbaa !65
  %169 = load i64, ptr %15, align 8, !tbaa !15
  %170 = or i64 %169, %168
  store i64 %170, ptr %15, align 8, !tbaa !15
  %171 = load i32, ptr %19, align 4, !tbaa !11
  %172 = add nsw i32 %171, 1
  store i32 %172, ptr %19, align 4, !tbaa !11
  br label %173

173:                                              ; preds = %162, %149, %137
  %174 = load i32, ptr %13, align 4, !tbaa !11
  %175 = add nsw i32 %174, 1
  store i32 %175, ptr %13, align 4, !tbaa !11
  br label %108, !llvm.loop !66

176:                                              ; preds = %108
  %177 = load i64, ptr %20, align 8, !tbaa !15
  %178 = load i64, ptr %15, align 8, !tbaa !15
  %179 = icmp eq i64 %177, %178
  br i1 %179, label %180, label %188

180:                                              ; preds = %176
  %181 = load ptr, ptr @stderr, align 8, !tbaa !9
  %182 = load ptr, ptr %9, align 8, !tbaa !4
  %183 = load ptr, ptr %10, align 8, !tbaa !4
  %184 = call i32 (ptr, ptr, ...) @fprintf(ptr noundef %181, ptr noundef @.str.94, ptr noundef %182, ptr noundef %183) #11
  %185 = load ptr, ptr %9, align 8, !tbaa !4
  %186 = load ptr, ptr %7, align 8, !tbaa !60
  %187 = load i32, ptr %8, align 4, !tbaa !11
  call void @hwloc_utils_parsing_flag_error(ptr noundef %185, ptr noundef %186, i32 noundef %187)
  store i64 -1, ptr %5, align 8
  store i32 1, ptr %16, align 4
  br label %190

188:                                              ; preds = %176
  %189 = load ptr, ptr %11, align 8, !tbaa !4
  store ptr %189, ptr %10, align 8, !tbaa !4
  store i32 0, ptr %16, align 4
  br label %190

190:                                              ; preds = %188, %180, %154, %84
  call void @llvm.lifetime.end.p0(i64 4, ptr %22) #11
  call void @llvm.lifetime.end.p0(i64 8, ptr %21) #11
  call void @llvm.lifetime.end.p0(i64 8, ptr %20) #11
  call void @llvm.lifetime.end.p0(i64 4, ptr %19) #11
  %191 = load i32, ptr %16, align 4
  switch i32 %191, label %195 [
    i32 0, label %192
    i32 6, label %193
  ]

192:                                              ; preds = %190
  br label %71, !llvm.loop !67

193:                                              ; preds = %190, %71
  %194 = load i64, ptr %15, align 8, !tbaa !15
  store i64 %194, ptr %5, align 8
  store i32 1, ptr %16, align 4
  br label %195

195:                                              ; preds = %193, %190, %68, %34
  call void @llvm.lifetime.end.p0(i64 8, ptr %15) #11
  call void @llvm.lifetime.end.p0(i64 8, ptr %14) #11
  call void @llvm.lifetime.end.p0(i64 4, ptr %13) #11
  call void @llvm.lifetime.end.p0(i64 4, ptr %12) #11
  call void @llvm.lifetime.end.p0(i64 8, ptr %11) #11
  call void @llvm.lifetime.end.p0(i64 8, ptr %10) #11
  %196 = load i64, ptr %5, align 8
  ret i64 %196
}

; Function Attrs: inlinehint nounwind uwtable
define internal i64 @hwloc_utils_parse_restrict_flags(ptr noundef %0) #2 {
  %2 = alloca ptr, align 8
  %3 = alloca [5 x %struct.hwloc_utils_parsing_flag], align 16
  store ptr %0, ptr %2, align 8, !tbaa !4
  call void @llvm.lifetime.start.p0(i64 80, ptr %3) #11
  call void @llvm.memcpy.p0.p0.i64(ptr align 16 %3, ptr align 16 @__const.hwloc_utils_parse_restrict_flags.possible_flags, i64 80, i1 false)
  %4 = load ptr, ptr %2, align 8, !tbaa !4
  %5 = getelementptr inbounds [5 x %struct.hwloc_utils_parsing_flag], ptr %3, i64 0, i64 0
  %6 = call i64 @hwloc_utils_parse_flags(ptr noundef %4, ptr noundef %5, i32 noundef 5, ptr noundef @.str.89)
  call void @llvm.lifetime.end.p0(i64 80, ptr %3) #11
  ret i64 %6
}