; Function Attrs: inlinehint nofree nounwind uwtable
define internal fastcc i64 @hwloc_utils_parse_restrict_flags(ptr noundef %0) unnamed_addr #11 {
  %2 = alloca ptr, align 8
  call void @llvm.lifetime.start.p0(i64 8, ptr nonnull %2) #21
  %3 = call i64 @strtoul(ptr noundef %0, ptr noundef nonnull %2, i32 noundef 0) #21
  %4 = load ptr, ptr %2, align 8, !tbaa !4
  %.not.i = icmp eq ptr %4, %0
  br i1 %.not.i, label %10, label %5

5:                                                ; preds = %1
  %6 = load i8, ptr %4, align 1, !tbaa !29
  %7 = icmp eq i8 %6, 0
  br i1 %7, label %8, label %10

8:                                                ; preds = %5
  %sext.i = shl i64 %3, 32
  %9 = ashr exact i64 %sext.i, 32
  br label %hwloc_utils_parse_flags.exit

10:                                               ; preds = %5, %1
  %11 = load i8, ptr %0, align 1, !tbaa !29
  %.not7813.i = icmp eq i8 %11, 0
  br i1 %.not7813.i, label %._crit_edge.i, label %.lr.ph.i

.lr.ph.i:                                         ; preds = %10
  %12 = tail call ptr @__ctype_toupper_loc() #28
  br label %13

13:                                               ; preds = %13, %.lr.ph.i
  %14 = phi i8 [ %11, %.lr.ph.i ], [ %23, %13 ]
  %.06714.i = phi i64 [ 0, %.lr.ph.i ], [ %21, %13 ]
  %15 = getelementptr inbounds nuw i8, ptr %0, i64 %.06714.i
  %16 = load ptr, ptr %12, align 8, !tbaa !30
  %17 = sext i8 %14 to i64
  %18 = getelementptr inbounds i32, ptr %16, i64 %17
  %19 = load i32, ptr %18, align 4, !tbaa !13
  %20 = trunc i32 %19 to i8
  store i8 %20, ptr %15, align 1, !tbaa !29
  %21 = add i64 %.06714.i, 1
  %22 = getelementptr inbounds nuw i8, ptr %0, i64 %21
  %23 = load i8, ptr %22, align 1, !tbaa !29
  %.not78.i = icmp eq i8 %23, 0
  br i1 %.not78.i, label %._crit_edge.i, label %13, !llvm.loop !32

._crit_edge.i:                                    ; preds = %13, %10
  %24 = tail call i32 @strcmp(ptr noundef nonnull dereferenceable(1) %0, ptr noundef nonnull dereferenceable(5) @.str.90) #22
  %25 = icmp eq i32 %24, 0
  br i1 %25, label %hwloc_utils_parse_flags.exit, label %.preheader.i

.preheader.i:                                     ; preds = %._crit_edge.i, %.split21.us.i
  %.069.i = phi i64 [ %.us-phi22.i, %.split21.us.i ], [ 0, %._crit_edge.i ]
  %.062.i = phi ptr [ %storemerge.i, %.split21.us.i ], [ %0, %._crit_edge.i ]
  %.not79.i = icmp eq ptr %.062.i, null
  br i1 %.not79.i, label %hwloc_utils_parse_flags.exit, label %26

26:                                               ; preds = %.preheader.i
  %27 = tail call i64 @strspn(ptr noundef nonnull %.062.i, ptr noundef nonnull @.str.91) #22
  %28 = getelementptr inbounds nuw i8, ptr %.062.i, i64 %27
  %29 = tail call i64 @strcspn(ptr noundef nonnull %28, ptr noundef nonnull @.str.92) #22
  %.not80.i = icmp eq i64 %29, 0
  br i1 %.not80.i, label %hwloc_utils_parse_flags.exit, label %30

30:                                               ; preds = %26
  %31 = getelementptr inbounds nuw i8, ptr %28, i64 %29
  %32 = load i8, ptr %31, align 1, !tbaa !29
  %.not81.i = icmp eq i8 %32, 0
  br i1 %.not81.i, label %35, label %33

33:                                               ; preds = %30
  store i8 0, ptr %31, align 1, !tbaa !29
  %34 = getelementptr inbounds nuw i8, ptr %31, i64 1
  br label %35

35:                                               ; preds = %33, %30
  %storemerge.i = phi ptr [ %34, %33 ], [ null, %30 ]
  store ptr %storemerge.i, ptr %2, align 8, !tbaa !4
  %36 = tail call ptr @strchr(ptr noundef nonnull dereferenceable(1) %28, i32 noundef 36) #22
  %.not82.not.i = icmp eq ptr %36, null
  br i1 %.not82.not.i, label %.split.us.i, label %.split.i

.split.i:                                         ; preds = %35
  store i8 0, ptr %36, align 1, !tbaa !29
  %37 = tail call i64 @strlen(ptr noundef nonnull dereferenceable(1) %28) #22
  %38 = sub i64 0, %37
  br label %48

.split.us.i:                                      ; preds = %35, %47
  %indvars.iv31.i = phi i64 [ %indvars.iv.next32.i, %47 ], [ 0, %35 ]
  %.06417.us.i = phi i32 [ %.165.us.i, %47 ], [ 0, %35 ]
  %.315.us.i = phi i64 [ %.4.us.i, %47 ], [ %.069.i, %35 ]
  %39 = getelementptr inbounds nuw %struct.hwloc_utils_parsing_flag, ptr @__const.hwloc_utils_parse_restrict_flags.possible_flags, i64 %indvars.iv31.i, i32 1
  %40 = load ptr, ptr %39, align 8, !tbaa !33
  %41 = tail call ptr @strstr(ptr noundef nonnull dereferenceable(1) %40, ptr noundef nonnull dereferenceable(1) %28) #22
  %.not83.us.i = icmp eq ptr %41, null
  br i1 %.not83.us.i, label %47, label %42

42:                                               ; preds = %.split.us.i
  %.not85.us.i = icmp eq i32 %.06417.us.i, 0
  br i1 %.not85.us.i, label %43, label %.split19.us.i

43:                                               ; preds = %42
  %44 = getelementptr inbounds nuw %struct.hwloc_utils_parsing_flag, ptr @__const.hwloc_utils_parse_restrict_flags.possible_flags, i64 %indvars.iv31.i
  %45 = load i64, ptr %44, align 16, !tbaa !36
  %46 = or i64 %45, %.315.us.i
  br label %47

47:                                               ; preds = %43, %.split.us.i
  %.4.us.i = phi i64 [ %46, %43 ], [ %.315.us.i, %.split.us.i ]
  %.165.us.i = phi i32 [ 1, %43 ], [ %.06417.us.i, %.split.us.i ]
  %indvars.iv.next32.i = add nuw nsw i64 %indvars.iv31.i, 1
  %exitcond34.not.i = icmp eq i64 %indvars.iv.next32.i, 5
  br i1 %exitcond34.not.i, label %.split21.us.i, label %.split.us.i, !llvm.loop !37

48:                                               ; preds = %62, %.split.i
  %indvars.iv.i = phi i64 [ 0, %.split.i ], [ %indvars.iv.next.i, %62 ]
  %.06417.i = phi i32 [ 0, %.split.i ], [ %.165.i, %62 ]
  %.315.i = phi i64 [ %.069.i, %.split.i ], [ %.4.i, %62 ]
  %49 = getelementptr inbounds nuw %struct.hwloc_utils_parsing_flag, ptr @__const.hwloc_utils_parse_restrict_flags.possible_flags, i64 %indvars.iv.i, i32 1
  %50 = load ptr, ptr %49, align 8, !tbaa !33
  %51 = tail call i64 @strlen(ptr noundef nonnull dereferenceable(1) %50) #22
  %52 = getelementptr inbounds nuw i8, ptr %50, i64 %51
  %53 = getelementptr inbounds i8, ptr %52, i64 %38
  %54 = tail call i32 @strcmp(ptr noundef nonnull dereferenceable(1) %28, ptr noundef nonnull dereferenceable(1) %53) #22
  %.not84.i = icmp eq i32 %54, 0
  br i1 %.not84.i, label %55, label %62

55:                                               ; preds = %48
  %.not85.i = icmp eq i32 %.06417.i, 0
  br i1 %.not85.i, label %58, label %.split19.us.i

.split19.us.i:                                    ; preds = %55, %42
  %56 = load ptr, ptr @stderr, align 8, !tbaa !9
  %57 = tail call i32 (ptr, ptr, ...) @fprintf(ptr noundef %56, ptr noundef nonnull @.str.93, ptr noundef nonnull @.str.89, ptr noundef nonnull %28) #23
  tail call fastcc void @hwloc_utils_parsing_flag_error(ptr noundef nonnull readonly @__const.hwloc_utils_parse_restrict_flags.possible_flags)
  br label %hwloc_utils_parse_flags.exit

58:                                               ; preds = %55
  %59 = getelementptr inbounds nuw %struct.hwloc_utils_parsing_flag, ptr @__const.hwloc_utils_parse_restrict_flags.possible_flags, i64 %indvars.iv.i
  %60 = load i64, ptr %59, align 16, !tbaa !36
  %61 = or i64 %60, %.315.i
  br label %62

62:                                               ; preds = %58, %48
  %.4.i = phi i64 [ %.315.i, %48 ], [ %61, %58 ]
  %.165.i = phi i32 [ %.06417.i, %48 ], [ 1, %58 ]
  %indvars.iv.next.i = add nuw nsw i64 %indvars.iv.i, 1
  %exitcond.not.i = icmp eq i64 %indvars.iv.next.i, 5
  br i1 %exitcond.not.i, label %.split21.us.i, label %48, !llvm.loop !37

.split21.us.i:                                    ; preds = %62, %47
  %.us-phi22.i = phi i64 [ %.4.us.i, %47 ], [ %.4.i, %62 ]
  %63 = icmp eq i64 %.069.i, %.us-phi22.i
  br i1 %63, label %64, label %.preheader.i

64:                                               ; preds = %.split21.us.i
  %65 = load ptr, ptr @stderr, align 8, !tbaa !9
  %66 = tail call i32 (ptr, ptr, ...) @fprintf(ptr noundef %65, ptr noundef nonnull @.str.94, ptr noundef nonnull @.str.89, ptr noundef nonnull %28) #23
  tail call fastcc void @hwloc_utils_parsing_flag_error(ptr noundef nonnull readonly @__const.hwloc_utils_parse_restrict_flags.possible_flags)
  br label %hwloc_utils_parse_flags.exit

hwloc_utils_parse_flags.exit:                     ; preds = %.preheader.i, %26, %8, %._crit_edge.i, %.split19.us.i, %64
  %.061.i = phi i64 [ %9, %8 ], [ 0, %._crit_edge.i ], [ -1, %.split19.us.i ], [ -1, %64 ], [ %.069.i, %26 ], [ %.069.i, %.preheader.i ]
  call void @llvm.lifetime.end.p0(i64 8, ptr nonnull %2) #21
  ret i64 %.061.i
}